; Function Attrs: mustprogress uwtable
define noundef nonnull align 8 dereferenceable(8) ptr @_ZN32pxrInternal_v0_24__pxrReserved__lsERSoRKNS_22SdfNamespaceEditDetailE(ptr noundef nonnull align 8 dereferenceable(8) %0, ptr noundef nonnull align 8 dereferenceable(56) %1) local_unnamed_addr #0 personality ptr @__gxx_personality_v0 {
  %3 = alloca %"struct.pxrInternal_v0_24__pxrReserved__::SdfNamespaceEditDetail", align 8
  %4 = alloca %"class.std::__cxx11::basic_string", align 8
  %5 = alloca %"class.std::__cxx11::basic_string", align 8
  call void @_ZN32pxrInternal_v0_24__pxrReserved__22SdfNamespaceEditDetailC1Ev(ptr noundef nonnull align 8 dereferenceable(56) %3)
  %6 = call noundef zeroext i1 @_ZNK32pxrInternal_v0_24__pxrReserved__22SdfNamespaceEditDetaileqERKS0_(ptr noundef nonnull align 8 dereferenceable(56) %1, ptr noundef nonnull align 8 dereferenceable(56) %3)
  call void @_ZN32pxrInternal_v0_24__pxrReserved__22SdfNamespaceEditDetailD2Ev(ptr noundef nonnull align 8 dereferenceable(56) %3) #24
  br i1 %6, label %7, label %12

7:                                                ; preds = %2
  %8 = load i32, ptr %1, align 8
  call void @_ZN32pxrInternal_v0_24__pxrReserved__6TfEnum7GetNameB5cxx11ES0_(ptr dead_on_unwind nonnull writable sret(%"class.std::__cxx11::basic_string") align 8 %4, ptr nonnull @_ZTIN32pxrInternal_v0_24__pxrReserved__22SdfNamespaceEditDetail6ResultE, i32 %8)
  %9 = invoke noundef nonnull align 8 dereferenceable(8) ptr @_ZStlsIcSt11char_traitsIcESaIcEERSt13basic_ostreamIT_T0_ES7_RKNSt7__cxx1112basic_stringIS4_S5_T1_EE(ptr noundef nonnull align 8 dereferenceable(8) %0, ptr noundef nonnull align 8 dereferenceable(32) %4)
          to label %30 unwind label %10

10:                                               ; preds = %7
  %11 = landingpad { ptr, i32 }
          cleanup
  br label %31

12:                                               ; preds = %2
  %13 = call noundef nonnull align 8 dereferenceable(8) ptr @_ZStlsISt11char_traitsIcEERSt13basic_ostreamIcT_ES5_PKc(ptr noundef nonnull align 8 dereferenceable(8) %0, ptr noundef nonnull @.str.26)
  %14 = load i32, ptr %1, align 8
  call void @_ZN32pxrInternal_v0_24__pxrReserved__6TfEnum7GetNameB5cxx11ES0_(ptr dead_on_unwind nonnull writable sret(%"class.std::__cxx11::basic_string") align 8 %5, ptr nonnull @_ZTIN32pxrInternal_v0_24__pxrReserved__22SdfNamespaceEditDetail6ResultE, i32 %14)
  %15 = invoke noundef nonnull align 8 dereferenceable(8) ptr @_ZStlsIcSt11char_traitsIcESaIcEERSt13basic_ostreamIT_T0_ES7_RKNSt7__cxx1112basic_stringIS4_S5_T1_EE(ptr noundef nonnull align 8 dereferenceable(8) %13, ptr noundef nonnull align 8 dereferenceable(32) %5)
          to label %16 unwind label %28

16:                                               ; preds = %12
  %17 = invoke noundef nonnull align 8 dereferenceable(8) ptr @_ZStlsISt11char_traitsIcEERSt13basic_ostreamIcT_ES5_PKc(ptr noundef nonnull align 8 dereferenceable(8) %15, ptr noundef nonnull @.str.27)
          to label %18 unwind label %28

18:                                               ; preds = %16
  %19 = getelementptr inbounds nuw i8, ptr %1, i64 4
  %20 = invoke noundef nonnull align 8 dereferenceable(8) ptr @_ZN32pxrInternal_v0_24__pxrReserved__lsERSoRKNS_16SdfNamespaceEditE(ptr noundef nonnull align 8 dereferenceable(8) %17, ptr noundef nonnull align 4 dereferenceable(20) %19)
          to label %21 unwind label %28

21:                                               ; preds = %18
  %22 = invoke noundef nonnull align 8 dereferenceable(8) ptr @_ZStlsISt11char_traitsIcEERSt13basic_ostreamIcT_ES5_PKc(ptr noundef nonnull align 8 dereferenceable(8) %20, ptr noundef nonnull @.str.27)
          to label %23 unwind label %28

23:                                               ; preds = %21
  %24 = getelementptr inbounds nuw i8, ptr %1, i64 24
  %25 = invoke noundef nonnull align 8 dereferenceable(8) ptr @_ZStlsIcSt11char_traitsIcESaIcEERSt13basic_ostreamIT_T0_ES7_RKNSt7__cxx1112basic_stringIS4_S5_T1_EE(ptr noundef nonnull align 8 dereferenceable(8) %22, ptr noundef nonnull align 8 dereferenceable(32) %24)
          to label %26 unwind label %28

26:                                               ; preds = %23
  %27 = invoke noundef nonnull align 8 dereferenceable(8) ptr @_ZStlsISt11char_traitsIcEERSt13basic_ostreamIcT_ES5_PKc(ptr noundef nonnull align 8 dereferenceable(8) %25, ptr noundef nonnull @.str.28)
          to label %30 unwind label %28

28:                                               ; preds = %26, %23, %21, %18, %16, %12
  %29 = landingpad { ptr, i32 }
          cleanup
  br label %31

30:                                               ; preds = %26, %7
  %.sink = phi ptr [ %4, %7 ], [ %5, %26 ]
  %.010 = phi ptr [ %9, %7 ], [ %27, %26 ]
  call void @_ZNSt7__cxx1112basic_stringIcSt11char_traitsIcESaIcEED1Ev(ptr noundef nonnull align 8 dereferenceable(32) %.sink) #24
  ret ptr %.010

31:                                               ; preds = %28, %10
  %.sink14 = phi ptr [ %5, %28 ], [ %4, %10 ]
  %.pn = phi { ptr, i32 } [ %29, %28 ], [ %11, %10 ]
  call void @_ZNSt7__cxx1112basic_stringIcSt11char_traitsIcESaIcEED1Ev(ptr noundef nonnull align 8 dereferenceable(32) %.sink14) #24
  resume { ptr, i32 } %.pn
}